Certificate:
    Data:
        Version: 3 (0x2)
        Serial Number: 18024866602111353956 (0xfa2530acbea64464)
    Signature Algorithm: sha1WithRSAEncryption
        Issuer: C=DE, ST=Berlin, O=Hoccer Betriebs GmbH, CN=Hoccer Betriebs GmbH CA/emailAddress=admins@hoccer.com
        Validity
            Not Before: Apr  7 14:24:02 2014 GMT
            Not After : Apr  4 14:24:02 2026 GMT
        Subject: C=DE, ST=Berlin, O=Hoccer Betriebs GmbH, CN=Hoccer Betriebs GmbH CA/emailAddress=admins@hoccer.com
        Subject Public Key Info:
            Public Key Algorithm: rsaEncryption
                Public-Key: (4096 bit)
                Modulus:
                    00:b3:07:a4:21:42:4f:aa:03:1e:77:7d:ba:44:e6:
                    c6:ea:da:a2:f3:69:54:fb:9d:29:f4:65:93:97:9d:
                    aa:52:e7:72:b4:78:2e:d6:5a:97:8e:58:b4:61:d9:
                    f1:03:6c:ca:96:b7:f6:ee:4a:e8:f7:3a:9b:ec:07:
                    d7:21:8a:6b:57:d6:4b:97:8f:76:e2:6b:aa:0d:f4:
                    8b:0f:1e:a6:f5:b9:a6:b0:01:02:b7:95:90:f5:0f:
                    11:e6:7a:fa:c6:fd:d0:bd:6d:11:22:5b:3c:d7:9b:
                    a2:49:5f:ae:bb:d6:5b:b1:01:05:2b:1f:a1:12:09:
                    f9:3d:b8:dc:17:1a:d5:d9:80:87:bf:13:62:66:be:
                    2c:09:14:3a:52:a3:75:26:c6:a4:8a:1f:d4:b1:72:
                    cc:5c:8c:59:8f:a7:9f:17:95:34:a2:00:0a:91:55:
                    03:36:e4:3b:df:e4:28:87:4a:15:69:0d:d9:81:1a:
                    5d:43:4e:5a:8d:16:22:dd:4b:64:49:fa:1b:32:3c:
                    2c:9a:7e:2d:13:21:50:c9:fb:20:70:c1:eb:12:27:
                    3e:6f:32:46:79:d3:4a:b3:d2:5c:98:0a:ea:46:ba:
                    b9:80:ba:f0:ee:09:b2:aa:ac:e0:ec:96:1d:35:75:
                    01:63:51:5c:d3:e6:58:cf:0f:f6:dc:52:86:06:a7:
                    74:33:12:e4:61:7b:db:2a:03:de:58:12:ba:ba:b6:
                    6b:01:bb:6b:32:c8:a2:51:a5:15:f1:47:f7:aa:50:
                    62:26:de:41:3d:d5:af:8e:3c:d8:5b:b5:93:d7:54:
                    a7:9e:56:29:b8:24:7e:e2:9f:68:5a:48:97:ae:4a:
                    43:de:19:7e:97:b8:1e:c3:ee:36:44:f3:23:bc:a8:
                    a3:2b:e7:98:25:a2:32:5c:31:27:67:c0:18:f0:0d:
                    f9:0a:d9:c1:7d:24:b4:59:a5:a2:82:80:54:d2:a0:
                    2e:bb:41:b4:af:0d:b2:aa:bd:d0:da:ea:65:c7:fc:
                    e7:2a:cb:ae:7b:f4:55:70:94:dc:28:1b:a4:f3:1c:
                    c5:84:23:90:58:af:8b:39:b9:8d:aa:6b:9b:d1:5b:
                    15:62:a6:99:90:af:2b:ae:1a:5d:f8:3d:7b:14:3e:
                    e4:52:ae:af:ab:2b:d6:15:d0:2d:72:dc:db:fc:5b:
                    b6:7f:0e:03:96:7d:cf:4f:96:f0:c1:49:c8:29:de:
                    b6:f5:bb:10:48:bc:e1:08:a5:f6:2a:09:26:3f:96:
                    2b:31:69:13:0e:a5:55:f9:e0:80:fd:11:2d:e1:c1:
                    af:af:23:7b:6f:e8:11:0b:58:3f:78:06:24:e7:c3:
                    64:f3:f4:f4:a4:3f:1b:2f:5e:13:47:22:54:db:c6:
                    d8:91:1f
                Exponent: 65537 (0x10001)
        X509v3 extensions:
            X509v3 Subject Key Identifier: 
                8C:E4:9F:37:ED:3B:8E:27:94:C4:39:75:41:81:7B:C5:BF:61:C6:6F
            X509v3 Authority Key Identifier: 
                keyid:8C:E4:9F:37:ED:3B:8E:27:94:C4:39:75:41:81:7B:C5:BF:61:C6:6F

            X509v3 Basic Constraints: 
                CA:TRUE
    Signature Algorithm: sha1WithRSAEncryption
         29:a6:a4:e1:07:56:bb:08:f9:d9:00:f1:04:65:28:0c:36:48:
         21:27:1c:9b:66:a3:04:48:b8:43:31:a2:22:62:14:48:af:52:
         2a:05:ce:b1:a1:ca:6c:37:1e:0b:1b:55:90:4b:16:99:61:a0:
         86:f0:ce:72:c9:d2:6f:e5:00:b1:3d:0a:17:a8:cc:d6:e2:bc:
         b0:e2:99:74:7a:72:61:d9:2f:46:3f:a5:82:39:59:04:3e:6d:
         56:d4:64:77:8c:f5:a8:2e:a5:54:60:e8:47:43:dc:c4:d4:c1:
         4f:0f:66:45:e6:cc:0b:ca:98:65:5a:04:8e:a3:68:11:05:38:
         9d:80:7d:a9:06:c3:92:1f:7a:cd:df:e5:b8:b2:ad:cb:75:89:
         26:ff:31:25:58:16:38:9a:25:67:0e:23:ea:22:5c:83:8d:1b:
         7e:72:c2:49:d8:82:59:e3:71:17:60:6d:4d:fc:fe:85:62:f8:
         17:20:48:6f:31:c2:7f:d4:b6:ba:4f:e5:e6:25:94:4b:20:af:
         b6:ee:9f:5d:78:59:13:e2:d6:63:58:98:25:76:9a:1b:14:b0:
         fe:f2:6f:00:03:61:1f:74:1a:22:27:c0:52:3b:bd:31:f6:49:
         b6:f3:c1:34:73:63:20:07:f0:17:95:7b:94:0f:e8:66:8a:63:
         e6:3b:da:9c:2c:51:44:2b:8a:8b:8f:d4:67:80:12:7e:6e:34:
         ee:12:e7:bb:1a:98:40:3f:9f:13:14:28:c1:1c:46:53:10:57:
         bd:97:bb:47:49:66:e8:34:bc:88:b9:50:ae:12:04:eb:19:27:
         2a:27:af:95:78:36:d0:67:73:de:70:53:54:fe:75:f6:0a:d9:
         a5:e9:d3:af:d0:65:be:4a:ba:64:e6:b6:1c:e3:78:ec:6e:68:
         76:95:4a:9f:81:5b:d1:52:ee:d2:1f:ee:49:42:58:15:44:30:
         c8:af:6f:90:51:4c:fb:5b:11:47:69:1d:ba:46:ba:96:c5:0b:
         bb:a8:8b:7a:b2:63:25:ec:57:6e:d8:dc:c2:2e:27:90:0b:ea:
         a3:a1:f7:5d:f1:37:bb:0d:b1:69:9c:d8:9c:eb:09:b3:ba:e6:
         d8:b2:d9:7e:ee:7c:5d:2b:30:e6:9a:13:c5:2f:c9:90:c5:42:
         02:1a:11:93:66:61:ff:62:9b:9c:86:81:65:6b:77:3e:7e:a7:
         cd:5c:64:58:16:a7:72:f3:5d:2c:72:68:d8:a0:65:65:56:7b:
         ec:80:de:57:94:f5:4a:8e:8e:08:23:1e:04:41:7c:b5:05:bc:
         1d:ad:4a:e6:2a:ca:a4:f9:45:ab:3f:de:24:d0:23:9d:ab:f9:
         1d:24:e5:fb:6e:18:9d:f9
-----BEGIN CERTIFICATE-----
MIIF1zCCA7+gAwIBAgIJAPolMKy+pkRkMA0GCSqGSIb3DQEBBQUAMIGBMQswCQYD
VQQGEwJERTEPMA0GA1UECAwGQmVybGluMR0wGwYDVQQKDBRIb2NjZXIgQmV0cmll
YnMgR21iSDEgMB4GA1UEAwwXSG9jY2VyIEJldHJpZWJzIEdtYkggQ0ExIDAeBgkq
hkiG9w0BCQEWEWFkbWluc0Bob2NjZXIuY29tMB4XDTE0MDQwNzE0MjQwMloXDTI2
MDQwNDE0MjQwMlowgYExCzAJBgNVBAYTAkRFMQ8wDQYDVQQIDAZCZXJsaW4xHTAb
BgNVBAoMFEhvY2NlciBCZXRyaWVicyBHbWJIMSAwHgYDVQQDDBdIb2NjZXIgQmV0
cmllYnMgR21iSCBDQTEgMB4GCSqGSIb3DQEJARYRYWRtaW5zQGhvY2Nlci5jb20w
ggIiMA0GCSqGSIb3DQEBAQUAA4ICDwAwggIKAoICAQCzB6QhQk+qAx53fbpE5sbq
2qLzaVT7nSn0ZZOXnapS53K0eC7WWpeOWLRh2fEDbMqWt/buSuj3OpvsB9chimtX
1kuXj3bia6oN9IsPHqb1uaawAQK3lZD1DxHmevrG/dC9bREiWzzXm6JJX6671lux
AQUrH6ESCfk9uNwXGtXZgIe/E2JmviwJFDpSo3UmxqSKH9SxcsxcjFmPp58XlTSi
AAqRVQM25Dvf5CiHShVpDdmBGl1DTlqNFiLdS2RJ+hsyPCyafi0TIVDJ+yBwwesS
Jz5vMkZ500qz0lyYCupGurmAuvDuCbKqrODslh01dQFjUVzT5ljPD/bcUoYGp3Qz
EuRhe9sqA95YErq6tmsBu2syyKJRpRXxR/eqUGIm3kE91a+OPNhbtZPXVKeeVim4
JH7in2haSJeuSkPeGX6XuB7D7jZE8yO8qKMr55glojJcMSdnwBjwDfkK2cF9JLRZ
paKCgFTSoC67QbSvDbKqvdDa6mXH/Ocqy6579FVwlNwoG6TzHMWEI5BYr4s5uY2q
a5vRWxVippmQryuuGl34PXsUPuRSrq+rK9YV0C1y3Nv8W7Z/DgOWfc9PlvDBScgp
3rb1uxBIvOEIpfYqCSY/lisxaRMOpVX54ID9ES3hwa+vI3tv6BELWD94BiTnw2Tz
9PSkPxsvXhNHIlTbxtiRHwIDAQABo1AwTjAdBgNVHQ4EFgQUjOSfN+07jieUxDl1
QYF7xb9hxm8wHwYDVR0jBBgwFoAUjOSfN+07jieUxDl1QYF7xb9hxm8wDAYDVR0T
BAUwAwEB/zANBgkqhkiG9w0BAQUFAAOCAgEAKaak4QdWuwj52QDxBGUoDDZIIScc
m2ajBEi4QzGiImIUSK9SKgXOsaHKbDceCxtVkEsWmWGghvDOcsnSb+UAsT0KF6jM
1uK8sOKZdHpyYdkvRj+lgjlZBD5tVtRkd4z1qC6lVGDoR0PcxNTBTw9mRebMC8qY
ZVoEjqNoEQU4nYB9qQbDkh96zd/luLKty3WJJv8xJVgWOJolZw4j6iJcg40bfnLC
SdiCWeNxF2BtTfz+hWL4FyBIbzHCf9S2uk/l5iWUSyCvtu6fXXhZE+LWY1iYJXaa
GxSw/vJvAANhH3QaIifAUju9MfZJtvPBNHNjIAfwF5V7lA/oZopj5jvanCxRRCuK
i4/UZ4ASfm407hLnuxqYQD+fExQowRxGUxBXvZe7R0lm6DS8iLlQrhIE6xknKiev
lXg20Gdz3nBTVP519grZpenTr9Blvkq6ZOa2HON47G5odpVKn4Fb0VLu0h/uSUJY
FUQwyK9vkFFM+1sRR2kduka6lsULu6iLerJjJexXbtjcwi4nkAvqo6H3XfE3uw2x
aZzYnOsJs7rm2LLZfu58XSsw5poTxS/JkMVCAhoRk2Zh/2KbnIaBZWt3Pn6nzVxk
WBancvNdLHJo2KBlZVZ77IDeV5T1So6OCCMeBEF8tQW8Ha1K5irKpPlFqz/eJNAj
nav5HSTl+24Ynfk=
-----END CERTIFICATE-----

